target datalayout = "e-m:e-p270:32:32-p271:32:32-p272:64:64-i64:64-i128:128-f80:128-n8:16:32:64-S128"
target triple = "x86_64-pc-linux-gnu"

%struct.uv__queue = type { ptr, ptr }
%struct.uv__io_s = type { ptr, %struct.uv__queue, %struct.uv__queue, i32, i32, i32 }
%struct.sockaddr = type { i16, [14 x i8] }
%struct.uv_udp_s = type { ptr, ptr, i32, ptr, %struct.uv__queue, %union.anon.1, ptr, i32, i64, i64, ptr, ptr, %struct.uv__io_s, %struct.uv__queue, %struct.uv__queue }
%union.anon.1 = type { [4 x ptr] }

; Function Attrs: nounwind uwtable
define dso_local i32 @uv_udp_connect(ptr noundef %0, ptr noundef %1) #0 {
  %3 = alloca i32, align 4
  %4 = alloca ptr, align 8
  %5 = alloca ptr, align 8
  %6 = alloca i32, align 4
  %7 = alloca i32, align 4
  store ptr %0, ptr %4, align 8
  store ptr %1, ptr %5, align 8
  call void @llvm.lifetime.start.p0(i64 4, ptr %6) #13
  %8 = load ptr, ptr %4, align 8
  %9 = getelementptr inbounds nuw %struct.uv_udp_s, ptr %8, i32 0, i32 2
  %10 = load i32, ptr %9, align 8
  %11 = icmp ne i32 %10, 15
  br i1 %11, label %12, label %13

12:                                               ; preds = %2
  store i32 -22, ptr %3, align 4
  store i32 1, ptr %7, align 4
  br label %54

13:                                               ; preds = %2
  %14 = load ptr, ptr %5, align 8
  %15 = icmp eq ptr %14, null
  br i1 %15, label %16, label %26

16:                                               ; preds = %13
  %17 = load ptr, ptr %4, align 8
  %18 = getelementptr inbounds nuw %struct.uv_udp_s, ptr %17, i32 0, i32 7
  %19 = load i32, ptr %18, align 8
  %20 = and i32 %19, 33554432
  %21 = icmp ne i32 %20, 0
  br i1 %21, label %23, label %22

22:                                               ; preds = %16
  store i32 -107, ptr %3, align 4
  store i32 1, ptr %7, align 4
  br label %54

23:                                               ; preds = %16
  %24 = load ptr, ptr %4, align 8
  %25 = call i32 @uv__udp_disconnect(ptr noundef %24)
  store i32 %25, ptr %3, align 4
  store i32 1, ptr %7, align 4
  br label %54

26:                                               ; preds = %13
  %27 = load ptr, ptr %5, align 8
  %28 = getelementptr inbounds nuw %struct.sockaddr, ptr %27, i32 0, i32 0
  %29 = load i16, ptr %28, align 2
  %30 = zext i16 %29 to i32
  %31 = icmp eq i32 %30, 2
  br i1 %31, label %32, label %33

32:                                               ; preds = %26
  store i32 16, ptr %6, align 4
  br label %42

33:                                               ; preds = %26
  %34 = load ptr, ptr %5, align 8
  %35 = getelementptr inbounds nuw %struct.sockaddr, ptr %34, i32 0, i32 0
  %36 = load i16, ptr %35, align 2
  %37 = zext i16 %36 to i32
  %38 = icmp eq i32 %37, 10
  br i1 %38, label %39, label %40

39:                                               ; preds = %33
  store i32 28, ptr %6, align 4
  br label %41

40:                                               ; preds = %33
  store i32 -22, ptr %3, align 4
  store i32 1, ptr %7, align 4
  br label %54

41:                                               ; preds = %39
  br label %42

42:                                               ; preds = %41, %32
  %43 = load ptr, ptr %4, align 8
  %44 = getelementptr inbounds nuw %struct.uv_udp_s, ptr %43, i32 0, i32 7
  %45 = load i32, ptr %44, align 8
  %46 = and i32 %45, 33554432
  %47 = icmp ne i32 %46, 0
  br i1 %47, label %48, label %49

48:                                               ; preds = %42
  store i32 -106, ptr %3, align 4
  store i32 1, ptr %7, align 4
  br label %54

49:                                               ; preds = %42
  %50 = load ptr, ptr %4, align 8
  %51 = load ptr, ptr %5, align 8
  %52 = load i32, ptr %6, align 4
  %53 = call i32 @uv__udp_connect(ptr noundef %50, ptr noundef %51, i32 noundef %52)
  store i32 %53, ptr %3, align 4
  store i32 1, ptr %7, align 4
  br label %54

54:                                               ; preds = %49, %48, %40, %23, %22, %12
  call void @llvm.lifetime.end.p0(i64 4, ptr %6) #13
  %55 = load i32, ptr %3, align 4
  ret i32 %55
}