; Function Attrs: nounwind uwtable
define dso_local i32 @uv_udp_connect(ptr noundef %0, ptr noundef %1) local_unnamed_addr #0 {
  %3 = getelementptr inbounds nuw i8, ptr %0, i64 16
  %4 = load i32, ptr %3, align 8
  %.not = icmp eq i32 %4, 15
  br i1 %.not, label %5, label %22

5:                                                ; preds = %2
  %6 = icmp eq ptr %1, null
  br i1 %6, label %7, label %13

7:                                                ; preds = %5
  %8 = getelementptr inbounds nuw i8, ptr %0, i64 88
  %9 = load i32, ptr %8, align 8
  %10 = and i32 %9, 33554432
  %.not14 = icmp eq i32 %10, 0
  br i1 %.not14, label %22, label %11

11:                                               ; preds = %7
  %12 = tail call i32 @uv__udp_disconnect(ptr noundef nonnull %0) #26
  br label %22

13:                                               ; preds = %5
  %14 = load i16, ptr %1, align 2
  switch i16 %14, label %22 [
    i16 2, label %16
    i16 10, label %15
  ]

15:                                               ; preds = %13
  br label %16

16:                                               ; preds = %13, %15
  %.0 = phi i32 [ 28, %15 ], [ 16, %13 ]
  %17 = getelementptr inbounds nuw i8, ptr %0, i64 88
  %18 = load i32, ptr %17, align 8
  %19 = and i32 %18, 33554432
  %.not13 = icmp eq i32 %19, 0
  br i1 %.not13, label %20, label %22

20:                                               ; preds = %16
  %21 = tail call i32 @uv__udp_connect(ptr noundef nonnull %0, ptr noundef nonnull %1, i32 noundef %.0) #26
  br label %22

22:                                               ; preds = %16, %13, %7, %2, %20, %11
  %.010 = phi i32 [ %12, %11 ], [ %21, %20 ], [ -22, %2 ], [ -107, %7 ], [ -22, %13 ], [ -106, %16 ]
  ret i32 %.010
}